-----BEGIN RSA PRIVATE KEY-----
Proc-Type: 4,ENCRYPTED
DEK-Info: AES-128-CBC,FEE646B3DEF280E637F9BDA5CFC7ED43

2x+wbx9FfqpJFXDyY7lXs/A4lMmsdhYN5pTocgxNrnSDLRwXZvT85v59nCqqc4SO
z/FnjfRQobtvyi8Ffk6B0UqXtcW2Wxgb9VvtxsHELCv49vRV+DtBw1vl4C5Q3Kr1
Qnh1hkIq5Xv8FmrxkNMmNu1kbtnnTY/1OW8/znNHDGfu5Uhh/BMQvFMPquCGzzPZ
DqKkMi1BYqzzAHaz7DSpHqo7CTxSEWWi1AuqBYXGeFvsklC03cGx9VrHjX3dIAkS
EaUlPpnVNTNAOzijg+AMifYgp88xAiirL1Q4o04wRKcr2yoknAfF8EhH98nLgQt1
Cb9Jz+q0+L2j0pgRed5XECDZ1vQF6i8GNVHu45EZyXJL4NTsb2wO+TnJv4TlxG8/
jQmcpxfGrKp3ghW3Bym4oPhx2m2VKdySUosAjyB0m6HKvPMwbtjeWUk4LYTgjvNV
12q7AtfMOGBNiTSYCnhHuzuSP2gz7y0Urg4ahfNPyfOM9FiiJe2kxJlWVezQ2CBP
fwtzKC9YRKUQSyKDiVw28plaTGoqLdUWagN2NJv+/M8gCHi4I4ewhjUlzvAN3zvo
K64p/oXSohvkknzg/s0QHIQdCRdkUjFU3Qrv99Dx6p7I8ZV9FbE/lQJAW7icqzn9
KQV1m0mWOcveLwMlbbZY2dvf1rHQCPjTTWyh7sf08macL23Y5visietV2l1SxwXG
n3W6zFOiW8iEcCkeKmMk+VMFF+yq/2Fc31blwHKcSmoE4k/i1/zT7C+jyz9vmBnT
Bukk8OxIOEbwCZF6sLpZ1/njAS6W1yqZZq/y2fe3UAFj+9W81y4pjL7SSTRtLf96
-----END RSA PRIVATE KEY-----
Certificate:
    Data:
        Version: 3 (0x2)
        Serial Number: 4096 (0x1000)
    Signature Algorithm: sha256WithRSAEncryption
        Issuer: C=UK, ST=Gloucestershire, L=Bristol, O=EKALIR, OU=EKALIR, CN=EKALIR/emailAddress=info@ekalirca.com
        Validity
            Not Before: Jul 15 13:04:21 2020 GMT
            Not After : Jul 15 13:04:21 2021 GMT
        Subject: C=UK, ST=Gloucestershire, O=EKALIR, OU=EKALIR, CN=ekalirvpnlab.com/emailAddress=info@ekalirvpnlab.com
        Subject Public Key Info:
            Public Key Algorithm: rsaEncryption
                Public-Key: (1024 bit)
                Modulus:
                    00:de:58:37:96:51:82:22:57:33:94:c1:68:80:33:
                    85:82:bb:ab:27:83:05:cc:05:67:c4:fa:4d:25:84:
                    70:a5:95:a6:98:0c:c0:11:41:2e:c7:c7:cc:fb:45:
                    4b:a8:6d:6f:e1:5e:31:fb:d5:a9:ba:7e:81:bb:a2:
                    d8:62:e3:a4:94:8d:4b:a8:3a:a3:f2:ea:ab:7e:2d:
                    20:a4:62:3d:ff:8c:aa:78:39:90:1d:6e:4c:9a:59:
                    a0:69:08:59:69:c9:76:db:25:31:03:18:2b:1c:14:
                    b4:ba:d1:53:ec:fb:d3:dc:3a:bb:41:ba:36:9b:36:
                    57:6a:d7:ee:a4:d2:03:5e:6f
                Exponent: 65537 (0x10001)
        X509v3 extensions:
            X509v3 Basic Constraints: 
                CA:FALSE
            Netscape Comment: 
                OpenSSL Generated Certificate
            X509v3 Subject Key Identifier: 
                E2:26:FB:5C:57:47:46:61:CF:17:1F:0B:60:4D:94:98:44:64:4B:30
            X509v3 Authority Key Identifier: 
                keyid:FA:CC:1C:A6:C3:E2:A6:2F:6E:F4:8F:6D:D7:E8:89:8E:06:05:11:9C

    Signature Algorithm: sha256WithRSAEncryption
         7c:6c:48:28:d4:61:cf:a9:81:9d:3e:9c:9a:ac:43:09:ff:70:
         83:ce:93:ac:49:4d:71:00:0d:0f:cd:9e:59:83:fc:3b:e5:ae:
         f7:a6:a5:ec:97:18:f3:f3:9f:91:d0:e5:97:9b:35:c5:c8:25:
         31:48:e2:32:e1:77:45:e0:0c:16:15:2b:aa:06:c2:45:71:7b:
         4a:b6:3d:6a:49:ed:25:34:0e:45:cf:26:1d:51:82:5b:b3:3f:
         68:f9:cf:ac:e4:7e:78:e9:7a:82:32:0f:fc:93:95:93:3f:0f:
         dc:0a:53:67:8f:17:dc:78:65:fa:59:fd:22:4e:01:15:0f:8f:
         d8:c4:37:d5:8a:40:7b:02:a4:a5:39:96:cd:aa:24:54:ed:ee:
         85:53:07:7e:49:94:f1:cf:51:16:21:f9:87:0e:29:c3:db:e8:
         7d:ba:85:a2:22:a8:b0:0d:0b:62:56:16:c1:d0:fc:23:7e:df:
         c8:35:8d:4b:e2:af:9c:ad:fd:dd:31:c0:63:20:79:e6:07:a9:
         36:d8:db:0a:3c:6e:fc:01:87:13:c0:a1:92:c3:ed:74:2e:13:
         23:69:de:60:17:96:2b:52:f8:03:3b:e5:fc:c7:32:6a:cd:7b:
         68:aa:2b:57:eb:4a:95:90:99:3d:d0:c5:d7:1f:eb:16:54:65:
         ec:5a:a5:c8
-----BEGIN CERTIFICATE-----
MIIDjTCCAnWgAwIBAgICEAAwDQYJKoZIhvcNAQELBQAwgY4xCzAJBgNVBAYTAlVL
MRgwFgYDVQQIDA9HbG91Y2VzdGVyc2hpcmUxEDAOBgNVBAcMB0JyaXN0b2wxDzAN
BgNVBAoMBkVLQUxJUjEPMA0GA1UECwwGRUtBTElSMQ8wDQYDVQQDDAZFS0FMSVIx
IDAeBgkqhkiG9w0BCQEWEWluZm9AZWthbGlyY2EuY29tMB4XDTIwMDcxNTEzMDQy
MVoXDTIxMDcxNTEzMDQyMVowgYoxCzAJBgNVBAYTAlVLMRgwFgYDVQQIDA9HbG91
Y2VzdGVyc2hpcmUxDzANBgNVBAoMBkVLQUxJUjEPMA0GA1UECwwGRUtBTElSMRkw
FwYDVQQDDBBla2FsaXJ2cG5sYWIuY29tMSQwIgYJKoZIhvcNAQkBFhVpbmZvQGVr
YWxpcnZwbmxhYi5jb20wgZ8wDQYJKoZIhvcNAQEBBQADgY0AMIGJAoGBAN5YN5ZR
giJXM5TBaIAzhYK7qyeDBcwFZ8T6TSWEcKWVppgMwBFBLsfHzPtFS6htb+FeMfvV
qbp+gbui2GLjpJSNS6g6o/Lqq34tIKRiPf+Mqng5kB1uTJpZoGkIWWnJdtslMQMY
KxwUtLrRU+z709w6u0G6Nps2V2rX7qTSA15vAgMBAAGjezB5MAkGA1UdEwQCMAAw
LAYJYIZIAYb4QgENBB8WHU9wZW5TU0wgR2VuZXJhdGVkIENlcnRpZmljYXRlMB0G
A1UdDgQWBBTiJvtcV0dGYc8XHwtgTZSYRGRLMDAfBgNVHSMEGDAWgBT6zBymw+Km
L270j23X6ImOBgURnDANBgkqhkiG9w0BAQsFAAOCAQEAfGxIKNRhz6mBnT6cmqxD
Cf9wg86TrElNcQAND82eWYP8O+Wu96al7JcY8/OfkdDll5s1xcglMUjiMuF3ReAM
FhUrqgbCRXF7SrY9akntJTQORc8mHVGCW7M/aPnPrOR+eOl6gjIP/JOVkz8P3ApT
Z48X3Hhl+ln9Ik4BFQ+P2MQ31YpAewKkpTmWzaokVO3uhVMHfkmU8c9RFiH5hw4p
w9vofbqFoiKosA0LYlYWwdD8I37fyDWNS+KvnK393THAYyB55gepNtjbCjxu/AGH
E8ChksPtdC4TI2neYBeWK1L4Azvl/Mcyas17aKorV+tKlZCZPdDF1x/rFlRl7Fql
yA==
-----END CERTIFICATE-----
